(dp1
Vny
p2
(dp3
S'latitude'
p4
F43.156168100000002
sS'n_called'
p5
I24792
sS'longitude'
p6
F-75.844994499999999
ssVia
p7
(dp8
g4
F41.921673400000003
sg5
I3393
sg6
F-93.312270400000003
ssVjapan
p9
(dp10
g4
F36.5748441
sg5
I69
sg6
F139.23941790000001
ssVkorea, republic of
p11
(dp12
g4
F35.398500800000001
sg5
I17
sg6
F127.937111
ssViran, islamic republic of
p13
(dp14
g4
F32.940749599999997
sg5
I24
sg6
F52.947134400000003
ssVazerbaijan
p15
(dp16
g4
F40.393629400000002
sg5
I2
sg6
F47.787250800000002
ssVuzbekistan
p17
(dp18
g4
F41.323729999999998
sg5
I3
sg6
F63.952809799999997
ssVsenegal
p19
(dp20
g4
F14.4750607
sg5
I3
sg6
F-14.4529611
ssVcambodia
p21
(dp22
g4
F13.506639399999999
sg5
I3
sg6
F104.869423
ssVga
p23
(dp24
g4
F-0.89996940000000003
sg5
I13409
sg6
F11.689969899999999
ssVhungary
p25
(dp26
g4
F47.181758500000001
sg5
I11
sg6
F19.506093700000001
ssVtaiwan
p27
(dp28
g4
F23.973937400000001
sg5
I11
sg6
F120.9820179
ssVcyprus
p29
(dp30
g4
F34.982301800000002
sg5
I10
sg6
F33.145128499999998
ssVbarbados
p31
(dp32
g4
F13.1500331
sg5
I11
sg6
F-59.525030399999999
ssVtx
p33
(dp34
g4
F31.8160381
sg5
I42926
sg6
F-99.512098499999993
ssVla
p35
(dp36
g4
F34.054394199999997
sg5
I3686
sg6
F-118.2439408
ssVlithuania
p37
(dp38
g4
F55.350000299999998
sg5
I6
sg6
F23.749999800000001
ssVmongolia
p39
(dp40
g4
F46.825038800000002
sg5
I4
sg6
F103.8499736
ssVunited kingdom
p41
(dp42
g4
F54.702354499999998
sg5
I4016
sg6
F-3.2765751999999999
ssVegypt
p43
(dp44
g4
F26.254049299999998
sg5
I37
sg6
F29.267546899999999
ssVrwanda
p45
(dp46
g4
F-1.964663
sg5
I1
sg6
F30.064435799999998
ssVaruba
p47
(dp48
g4
F12.5013629
sg5
I4
sg6
F-69.961847399999996
ssVpuerto rico
p49
(dp50
g4
F18.201780899999999
sg5
I345
sg6
F-66.584124500000001
ssVargentina
p51
(dp52
g4
F-34.996496200000003
sg5
I38
sg6
F-64.967281600000007
ssVnorway
p53
(dp54
g4
F64.574130999999994
sg5
I61
sg6
F11.527010289240501
ssVca
p55
(dp56
g4
F61.066692199999999
sg5
I57665
sg6
F-107.99170700000001
ssVbahrain
p57
(dp58
g4
F26.155124900000001
sg5
I14
sg6
F50.534460600000003
ssVaustralia
p59
(dp60
g4
F-24.776108499999999
sg5
I389
sg6
F134.755
ssVsk canada
p61
(dp62
g4
F54
sg5
I432
sg6
F-105.99999990000001
ssVliberia
p63
(dp64
g4
F5.7499720999999999
sg5
I1
sg6
F-9.3658523000000002
ssVzambia
p65
(dp66
g4
F-14.5186238
sg5
I1
sg6
F27.559916399999999
ssVde
p67
(dp68
g4
F51.083419599999999
sg5
I1500
sg6
F10.4234469
ssVdc
p69
(dp70
g4
F38.893661250000001
sg5
I2366
sg6
F-76.987883153881995
ssVguatemala
p71
(dp72
g4
F15.6356088
sg5
I7
sg6
F-89.898808599999995
ssVzimbabwe
p73
(dp74
g4
F-18.455496199999999
sg5
I3
sg6
F29.746841400000001
ssVbelgium
p75
(dp76
g4
F50.640735100000001
sg5
I31
sg6
F4.6669600000000004
ssVhaiti
p77
(dp78
g4
F19.139995200000001
sg5
I1
sg6
F-72.357097100000004
ssVkazakhstan
p79
(dp80
g4
F47.228608600000001
sg5
I4
sg6
F65.209319699999995
ssVmauritania
p81
(dp82
g4
F20.2540382
sg5
I1
sg6
F-9.2399261999999993
ssVkyrgyzstan
p83
(dp84
g4
F41.508932399999999
sg5
I3
sg6
F74.724091000000001
ssVnetherlands
p85
(dp86
g4
F52.2379891
sg5
I202
sg6
F5.5346073816155101
ssVportugal
p87
(dp88
g4
F40.033265
sg5
I13
sg6
F-7.8896262000000004
ssVdenmark
p89
(dp90
g4
F55.670248999999998
sg5
I43
sg6
F10.3333283
ssVphilippines
p91
(dp92
g4
F12.750348600000001
sg5
I381
sg6
F122.7312101
ssVlatvia
p93
(dp94
g4
F56.866690400000003
sg5
I12
sg6
F24.599971700000001
ssVnamibia
p95
(dp96
g4
F-23.233549799999999
sg5
I3
sg6
F17.323110700000001
ssVswitzerland
p97
(dp98
g4
F46.798562400000002
sg5
I242
sg6
F8.2319735999999999
ssVbulgaria
p99
(dp100
g4
F42.607397499999998
sg5
I13840
sg6
F25.485661700000001
ssVjamaica
p101
(dp102
g4
F18.185050700000001
sg5
I47
sg6
F-77.394769199999999
ssValbania
p103
(dp104
g4
F41.000028
sg5
I6
sg6
F19.999961899999999
ssVhonduras
p105
(dp106
g4
F15.0610686
sg5
I5
sg6
F-84.597853299999997
ssVbc canada
p107
(dp108
g4
F55
sg5
I2529
sg6
F-124.99999990000001
ssVpalestinian territory
p109
(dp110
g4
F31.649740999999999
sg5
I1
sg6
F35.162072000000002
ssVlebanon
p111
(dp112
g4
F33.875062900000003
sg5
I16
sg6
F35.843409000000001
ssVvirgin islands, u.s.
p113
(dp114
g4
F17.789186999999998
sg5
I7
sg6
F-64.708057299999993
ssVmalaysia
p115
(dp116
g4
F2.3923759000000002
sg5
I55
sg6
F112.84719389999999
ssVmozambique
p117
(dp118
g4
F-19.3022329
sg5
I1
sg6
F34.914497699999998
ssVreunion
p119
(dp120
g4
F-21.1309331
sg5
I1
sg6
F55.526577099999997
ssVnt canada
p121
(dp122
g4
F65.000000400000005
sg5
I8
sg6
F-117.99999990000001
ssVnicaragua
p123
(dp124
g4
F12.3724928
sg5
I8
sg6
F-84.870030700000001
ssVcanada
p125
(dp126
g4
F61.066692199999999
sg5
I4940
sg6
F-107.99170700000001
ssVafghanistan
p127
(dp128
g4
F33.000086600000003
sg5
I4
sg6
F64.9998468
ssVqatar
p129
(dp130
g4
F25.333698399999999
sg5
I14
sg6
F51.229529499999998
ssVcuracao
p131
(dp132
g4
F12.1845
sg5
I6
sg6
F-68.964091759407694
ssVmt
p133
(dp134
g4
F35.944673100000003
sg5
I1738
sg6
F14.3836306158583
ssVsudan
p135
(dp136
g4
F15.45374395
sg5
I8
sg6
F29.795152519221698
ssVkuwait
p137
(dp138
g4
F29.273396399999999
sg5
I16
sg6
F47.497947600000003
ssVpanama
p139
(dp140
g4
F8.3096066999999998
sg5
I34
sg6
F-81.306624499999998
ssVnepal
p141
(dp142
g4
F28.108210700000001
sg5
I13
sg6
F84.091751500000001
ssVsyrian arab republic
p143
(dp144
g4
F34.640186100000001
sg5
I3
sg6
F39.049410600000002
ssVluxembourg
p145
(dp146
g4
F49.815868299999998
sg5
I14
sg6
F6.1296751
ssVcroatia
p147
(dp148
g4
F45.564344200000001
sg5
I7
sg6
F17.0118954
ssVct
p149
(dp150
g4
F41.650020099999999
sg5
I6542
sg6
F-72.734216200000006
ssVvenezuela
p151
(dp152
g4
F8.0018709000000001
sg5
I8
sg6
F-66.110931699999995
ssVri
p153
(dp154
g4
F41.796240900000001
sg5
I5120
sg6
F-71.599237099999996
ssVwa
p155
(dp156
g4
F47.286835199999999
sg5
I16447
sg6
F-120.2126138
ssVunited arab emirates
p157
(dp158
g4
F24.000248800000001
sg5
I60
sg6
F53.999482899999997
ssVvt
p159
(dp160
g4
F44.599071799999997
sg5
I1124
sg6
F-72.500260699999998
ssVsaint kitts and nevis
p161
(dp162
g4
F17.346227800000001
sg5
I2
sg6
F-62.768727599999998
ssVwi
p163
(dp164
g4
F44.4308975
sg5
I6950
sg6
F-89.688463600000006
ssVcosta rica
p165
(dp166
g4
F10.273563299999999
sg5
I61
sg6
F-84.073910100000006
ssVwv
p167
(dp168
g4
F38.475840599999998
sg5
I1997
sg6
F-80.840841400000002
ssVchina
p169
(dp170
g4
F35.000073999999998
sg5
I61
sg6
F104.999927
ssVthailand
p171
(dp172
g4
F14.8971921
sg5
I35
sg6
F100.83273
ssVbelize
p173
(dp174
g4
F16.8259793
sg5
I8
sg6
F-88.760092599999993
ssVtanzania, united republic of
p175
(dp176
g4
F-6.8125772500000004
sg5
I6
sg6
F39.289504105551401
ssVwy
p177
(dp178
g4
F43.170026399999998
sg5
I834
sg6
F-107.5685347
ssVukraine
p179
(dp180
g4
F49.4871968
sg5
I11
sg6
F31.271832100000001
ssVok
p181
(dp182
g4
F34.955081700000001
sg5
I5378
sg6
F-97.268406200000001
ssVnorthern mariana islands
p183
(dp184
g4
F14.149020500000001
sg5
I8
sg6
F145.213452483189
ssVlibya
p185
(dp186
g4
F26.8234472
sg5
I1
sg6
F18.123672299999999
ssVtrinidad and tobago
p187
(dp188
g4
F10.867784500000001
sg5
I3
sg6
F-60.982106600000002
ssVoman
p189
(dp190
g4
F21.000028700000001
sg5
I6
sg6
F57.0036901
ssVfinland
p191
(dp192
g4
F63.246777700000003
sg5
I29
sg6
F25.920916399999999
ssVsaint pierre and miquelon
p193
(dp194
g4
F46.837454399999999
sg5
I5
sg6
F-56.212055399999997
ssVmauritius
p195
(dp196
g4
F-20.275945
sg5
I1
sg6
F57.570356599999997
ssVantigua and barbuda
p197
(dp198
g4
F17.079128000000001
sg5
I4
sg6
F-61.8222515
ssVestonia
p199
(dp200
g4
F58.752377799999998
sg5
I6
sg6
F25.3319078
ssVdominican republic
p201
(dp202
g4
F19.097403100000001
sg5
I43
sg6
F-70.302802499999999
ssVor
p203
(dp204
g4
F43.979279699999999
sg5
I7902
sg6
F-120.73725690000001
ssVjersey
p205
(dp206
g4
F49.221456099999997
sg5
I2
sg6
F-2.1358385000000002
ssVpakistan
p207
(dp208
g4
F30.3308401
sg5
I85
sg6
F71.247499000000005
ssVromania
p209
(dp210
g4
F45.985212900000001
sg5
I31
sg6
F24.6859225
ssVseychelles
p211
(dp212
g4
F-4.6574976000000001
sg5
I1
sg6
F55.454014600000001
ssVco
p213
(dp214
g4
F2.8931079999999998
sg5
I11786
sg6
F-73.784514200000004
ssVczech republic
p215
(dp216
g4
F49.816700300000001
sg5
I21
sg6
F15.4749544
ssVmyanmar
p217
(dp218
g4
F17.1750495
sg5
I4
sg6
F95.999965200000005
ssVva
p219
(dp220
g4
F13.2904027
sg5
I16110
sg6
F108.4265113
ssVtunisia
p221
(dp222
g4
F33.843940799999999
sg5
I6
sg6
F9.4001380000000001
ssVguam
p223
(dp224
g4
F13.450125699999999
sg5
I21
sg6
F144.75755102972099
ssVaustria
p225
(dp226
g4
F47.2000338
sg5
I26
sg6
F13.199959
ssVcolombia
p227
(dp228
g4
F2.8931079999999998
sg5
I55
sg6
F-73.784514200000004
ssVnew zealand
p229
(dp230
g4
F-41.500082999999997
sg5
I59
sg6
F172.83440770000001
ssVqc canada
p231
(dp232
g4
F54
sg5
I1627
sg6
F-71.999999900000006
ssVturkey
p233
(dp234
g4
F38.959759400000003
sg5
I56
sg6
F34.924965299999997
ssVtn
p235
(dp236
g4
F34.003536850000003
sg5
I7489
sg6
F9.36077214013382
ssVsaudi arabia
p237
(dp238
g4
F25.624261799999999
sg5
I99
sg6
F42.352832800000002
ssViraq
p239
(dp240
g4
F33.095579299999997
sg5
I7
sg6
F44.174977499999997
ssVbangladesh
p241
(dp242
g4
F24.476878299999999
sg5
I6
sg6
F90.293242599999999
ssVnb canada
p243
(dp244
g4
F46.5
sg5
I298
sg6
F-66.749999900000006
ssVmb canada
p245
(dp246
g4
F55.000000100000001
sg5
I549
sg6
F-97
ssVmexico
p247
(dp248
g4
F19.432530100000001
sg5
I347
sg6
F-99.133210099999999
ssVab canada
p249
(dp250
g4
F55
sg5
I1601
sg6
F-114.9999998
ssVfrance
p251
(dp252
g4
F46.603354000000003
sg5
I137
sg6
F1.8883335000000001
ssVbahamas
p253
(dp254
g4
F24.7736546
sg5
I44
sg6
F-78.000054599999999
ssVpa
p255
(dp256
g4
F8.3096066999999998
sg5
I18682
sg6
F-81.306624499999998
ssVslovakia
p257
(dp258
g4
F48.741152200000002
sg5
I11
sg6
F19.452864600000002
ssVireland
p259
(dp260
g4
F52.865195999999997
sg5
I95
sg6
F-7.9794597999999999
ssVnigeria
p261
(dp262
g4
F9.6000359
sg5
I38
sg6
F7.9999720999999999
ssVbolivia
p263
(dp264
g4
F-17.056869500000001
sg5
I1
sg6
F-64.991228500000005
ssVecuador
p265
(dp266
g4
F-1.3397667
sg5
I17
sg6
F-79.366696399999995
ssVmoldova, republic of
p267
(dp268
g4
F47.286746999999998
sg5
I11
sg6
F28.511023600000001
ssVsaint martin
p269
(dp270
g4
F18.081406600000001
sg5
I3
sg6
F-63.046712999999997
ssVisrael
p271
(dp272
g4
F30.876027199999999
sg5
I81
sg6
F35.001519600000002
ssVperu
p273
(dp274
g4
F-6.8699696000000001
sg5
I25
sg6
F-75.045851400000004
ssValgeria
p275
(dp276
g4
F28.000027200000002
sg5
I19
sg6
F2.9999825000000002
ssVsweden
p277
(dp278
g4
F59.674971200000002
sg5
I95
sg6
F14.5208584
ssVserbia
p279
(dp280
g4
F44.153412099999997
sg5
I7
sg6
F20.551439999999999
ssVisle of man
p281
(dp282
g4
F54.235816700000001
sg5
I5
sg6
F-4.5145986456982499
ssVmontenegro
p283
(dp284
g4
F43.028555799999999
sg5
I1
sg6
F19.291739
ssVtajikistan
p285
(dp286
g4
F38.6281733
sg5
I3
sg6
F70.815654100000003
ssVal
p287
(dp288
g4
F33.258881700000003
sg5
I5465
sg6
F-86.829533600000005
ssVsri lanka
p289
(dp290
g4
F7.8780000000000001
sg5
I15
sg6
F80.703824587499994
ssVnl canada
p291
(dp292
g4
F52.000000200000002
sg5
I78
sg6
F-56
ssVhi
p293
(dp294
g4
F21.2160437
sg5
I1678
sg6
F-157.9752029
ssVjordan
p295
(dp296
g4
F31.166704899999999
sg5
I4
sg6
F36.941628000000001
ssVchile
p297
(dp298
g4
F-31.761336400000001
sg5
I16
sg6
F-71.318769599999996
ssVturks and caicos islands
p299
(dp300
g4
F21.721468300000002
sg5
I2
sg6
F-71.620178199999998
ssVvirgin islands, british
p301
(dp302
g4
F18.4024395
sg5
I3
sg6
F-64.566164099999995
ssVspain
p303
(dp304
g4
F40.002802799999998
sg5
I74
sg6
F-4.0031039000000002
ssVme
p305
(dp306
g4
F22.500048499999998
sg5
I2700
sg6
F-100.0000374
ssVmd
p307
(dp308
g4
F39.516223400000001
sg5
I10890
sg6
F-76.938206800000003
ssVgeorgia
p309
(dp310
g4
F32.329380899999997
sg5
I3
sg6
F-83.113736500000002
ssVma
p311
(dp312
g4
F41.893508500000003
sg5
I13064
sg6
F12.4825526
ssVap
p313
(dp314
g4
F1.3545442000000001
sg5
I2
sg6
F-51.916197599999997
ssVut
p315
(dp316
g4
F39.422519200000004
sg5
I3806
sg6
F-111.7143583
ssVmo
p317
(dp318
g4
F38.760481499999997
sg5
I7927
sg6
F-92.5617874
ssVoh
p319
(dp320
g4
F40.225356900000001
sg5
I15896
sg6
F-82.688139399999997
ssVmi
p321
(dp322
g4
F39.783730400000003
sg5
I13112
sg6
F-100.4458824
ssVmorocco
p323
(dp324
g4
F31.172819199999999
sg5
I9
sg6
F-7.3366042
ssVon canada
p325
(dp326
g4
F50.000000200000002
sg5
I7992
sg6
F-86
ssVms
p327
(dp328
g4
F32.971564499999999
sg5
I1754
sg6
F-89.734849600000004
ssVrussian federation
p329
(dp330
g4
F64.686313600000005
sg5
I69
sg6
F97.745306099999993
ssVgrenada
p331
(dp332
g4
F12.136037399999999
sg5
I2
sg6
F-61.690404399999998
ssVhong kong
p333
(dp334
g4
F22.279327800000001
sg5
I28
sg6
F114.16281309999999
ssVil
p335
(dp336
g4
F40.079631900000003
sg5
I17248
sg6
F-89.4339808
ssVghana
p337
(dp338
g4
F8.0300284000000008
sg5
I11
sg6
F-1.0800270000000001
ssVmacau
p339
(dp340
g4
F22.189944799999999
sg5
I2
sg6
F113.5380454
ssVuruguay
p341
(dp342
g4
F-32.875554700000002
sg5
I1
sg6
F-56.020152400000001
ssVbotswana
p343
(dp344
g4
F-23.168178099999999
sg5
I2
sg6
F24.592874200000001
ssVak
p345
(dp346
g4
F64.445961299999993
sg5
I1320
sg6
F-149.68090889999999
ssVgreece
p347
(dp348
g4
F39.000041000000003
sg5
I35
sg6
F21.999956900000001
ssVindia
p349
(dp350
g4
F22.351114800000001
sg5
I2057
sg6
F78.667742799999999
ssVnew caledonia
p351
(dp352
g4
F-21.301990400000001
sg5
I1
sg6
F165.48807729999999
ssVlesotho
p353
(dp354
g4
F-29.603926600000001
sg5
I2
sg6
F28.335019299999999
ssVar
p355
(dp356
g4
F-34.996496200000003
sg5
I2416
sg6
F-64.967281600000007
ssVsaint vincent and the grenadines
p357
(dp358
g4
F12.90447
sg5
I1
sg6
F-61.276556800000002
ssVmacedonia
p359
(dp360
g4
F41.617121400000002
sg5
I41
sg6
F21.7168387
ssVin
p361
(dp362
g4
F22.351114800000001
sg5
I5774
sg6
F78.667742799999999
ssVpe canada
p363
(dp364
g4
F-11.9497445
sg5
I53
sg6
F-77.052865600000004
ssVkenya
p365
(dp366
g4
F1.4419683000000001
sg5
I9
sg6
F38.431397500000003
ssVmn
p367
(dp368
g4
F45.9896587
sg5
I8947
sg6
F-94.611328700000001
ssVcote d'ivoire
p369
(dp370
g4
F7.9897371000000001
sg5
I3
sg6
F-5.5679457000000001
ssVnh
p371
(dp372
g4
F43.484913300000002
sg5
I3156
sg6
F-71.655399099999997
ssVnj
p373
(dp374
g4
F40.075738399999999
sg5
I13516
sg6
F-74.404162099999994
ssVaz
p375
(dp376
g4
F40.393629400000002
sg5
I13947
sg6
F47.787250800000002
ssVitaly
p377
(dp378
g4
F42.638426099999997
sg5
I104
sg6
F12.674296999999999
ssVnm
p379
(dp380
g4
F34.570816700000002
sg5
I3153
sg6
F-105.9930069
ssVsouth africa
p381
(dp382
g4
F-28.816623499999999
sg5
I61
sg6
F24.991638999999999
ssVnc
p383
(dp384
g4
F35.672963899999999
sg5
I12486
sg6
F-79.039291800000001
ssVnd
p385
(dp386
g4
F47.620146099999999
sg5
I747
sg6
F-100.5407369
ssVne
p387
(dp388
g4
F41.737022899999999
sg5
I2994
sg6
F-99.587381500000006
ssVmalta
p389
(dp390
g4
F27.501571899999998
sg5
I2
sg6
F85.245166600000005
ssVid
p391
(dp392
g4
F-4.7993354999999998
sg5
I2590
sg6
F114.5632032
ssVethiopia
p393
(dp394
g4
F10.2116702
sg5
I5
sg6
F38.6521203
ssVbermuda
p395
(dp396
g4
F32.301821699999998
sg5
I6
sg6
F-64.760358199999999
ssVns canada
p397
(dp398
g4
F45.000000200000002
sg5
I385
sg6
F-62.999999799999998
ssVcameroon
p399
(dp400
g4
F4.6125521999999997
sg5
I1
sg6
F13.1535811
ssVnv
p401
(dp402
g4
F39.515882499999996
sg5
I5396
sg6
F-116.8537226
ssVbenin
p403
(dp404
g4
F9.5293472000000001
sg5
I2
sg6
F2.2584407999999998
ssVbrazil
p405
(dp406
g4
F-10.3333332
sg5
I80
sg6
F-53.199999900000002
ssVlao people's democratic republic
p407
(dp408
g4
F20.017110899999999
sg5
I2
sg6
F103.378253
ssVyt canada
p409
(dp410
g4
F63.000000100000001
sg5
I13
sg6
F-136
ssVsingapore
p411
(dp412
g4
F1.2904526999999999
sg5
I35
sg6
F103.85203799999999
ssViceland
p413
(dp414
g4
F64.984182099999998
sg5
I3
sg6
F-18.105901200000002
ssVsaint lucia
p415
(dp416
g4
F13.825048900000001
sg5
I15
sg6
F-60.975035900000002
ssVcayman islands
p417
(dp418
g4
F19.541721200000001
sg5
I5
sg6
F-80.566713100000001
ssVslovenia
p419
(dp420
g4
F45.813311300000002
sg5
I3
sg6
F14.4808369
ssVgermany
p421
(dp422
g4
F51.083419599999999
sg5
I385
sg6
F10.4234469
ssVfl
p423
(dp424
g4
F27.7567667
sg5
I28227
sg6
F-81.463983400000004
ssVdominica
p425
(dp426
g4
F15.4113138
sg5
I1
sg6
F-61.365361700000001
ssVturkmenistan
p427
(dp428
g4
F39.376380699999999
sg5
I1
sg6
F59.392460900000003
ssVsuriname
p429
(dp430
g4
F4.1413025000000001
sg5
I2
sg6
F-56.077118599999999
ssVmaldives
p431
(dp432
g4
F4.2218416999999997
sg5
I1
sg6
F73.486796799999993
ssVel salvador
p433
(dp434
g4
F13.800038199999999
sg5
I15
sg6
F-88.914068200000003
ssVpoland
p435
(dp436
g4
F52.097718100000002
sg5
I61
sg6
F19.025815900000001
ssVindonesia
p437
(dp438
g4
F-4.7993354999999998
sg5
I23
sg6
F114.5632032
ssVks
p439
(dp440
g4
F38.273119999999999
sg5
I5076
sg6
F-98.582187099999999
ssVbelarus
p441
(dp442
g4
F53.425060500000001
sg5
I1
sg6
F27.697135800000002
ssVvietnam
p443
(dp444
g4
F13.2904027
sg5
I13
sg6
F108.4265113
ssVguinea
p445
(dp446
g4
F10.722622599999999
sg5
I1
sg6
F-10.7083586
ssVsc
p447
(dp448
g4
F-27.062836600000001
sg5
I4981
sg6
F-51.114964899999997
ssVky
p449
(dp450
g4
F37.572602799999999
sg5
I4767
sg6
F-85.155141
ssVsd
p451
(dp452
g4
F15.45374395
sg5
I1132
sg6
F29.795152519221698
ss.